; Function Attrs: nounwind uwtable
define ptr @l_Std_Time_Database_TZdb_parseTZif(ptr noundef %0, ptr noundef %1) local_unnamed_addr #0 {
  %3 = load ptr, ptr @l_Std_Time_Database_TZdb_parseTZif___closed__1, align 8, !tbaa !4
  %4 = tail call ptr @l_Std_Internal_Parsec_ByteArray_Parser_run___rarg(ptr noundef %3, ptr noundef %0) #3
  %5 = ptrtoint ptr %4 to i64
  %6 = and i64 %5, 1
  %.not.i30 = icmp eq i64 %6, 0
  br i1 %.not.i30, label %10, label %7

7:                                                ; preds = %2
  %8 = lshr i64 %5, 1
  %9 = trunc i64 %8 to i32
  br label %lean_obj_tag.exit

10:                                               ; preds = %2
  %11 = getelementptr i8, ptr %4, i64 4
  %.val.i = load i32, ptr %11, align 4
  %12 = lshr i32 %.val.i, 24
  br label %lean_obj_tag.exit

lean_obj_tag.exit:                                ; preds = %7, %10
  %.0.i = phi i32 [ %9, %7 ], [ %12, %10 ]
  %13 = icmp eq i32 %.0.i, 0
  br i1 %13, label %14, label %48

14:                                               ; preds = %lean_obj_tag.exit
  %15 = ptrtoint ptr %1 to i64
  %16 = and i64 %15, 1
  %.not37 = icmp eq i64 %16, 0
  br i1 %.not37, label %17, label %lean_dec.exit

17:                                               ; preds = %14
  %18 = load i32, ptr %1, align 4, !tbaa !8
  %19 = icmp sgt i32 %18, 1
  br i1 %19, label %20, label %22, !prof !11

20:                                               ; preds = %17
  %21 = add nsw i32 %18, -1
  store i32 %21, ptr %1, align 4, !tbaa !8
  br label %lean_dec.exit

22:                                               ; preds = %17
  %.not.i28 = icmp eq i32 %18, 0
  br i1 %.not.i28, label %lean_dec.exit, label %23

23:                                               ; preds = %22
  tail call void @lean_dec_ref_cold(ptr noundef nonnull %1) #3
  br label %lean_dec.exit

lean_dec.exit:                                    ; preds = %23, %22, %20, %14
  %.val = load i32, ptr %4, align 4, !tbaa !8
  %24 = icmp eq i32 %.val, 1
  br i1 %24, label %lean_dec.exit22, label %25

25:                                               ; preds = %lean_dec.exit
  %26 = getelementptr inbounds nuw i8, ptr %4, i64 8
  %27 = load ptr, ptr %26, align 8, !tbaa !4
  %28 = ptrtoint ptr %27 to i64
  %29 = and i64 %28, 1
  %.not38 = icmp eq i64 %29, 0
  br i1 %.not38, label %30, label %lean_inc.exit

30:                                               ; preds = %25
  %.val.i31 = load i32, ptr %27, align 4, !tbaa !8
  %31 = icmp sgt i32 %.val.i31, 0
  br i1 %31, label %32, label %34, !prof !11

32:                                               ; preds = %30
  %33 = add nuw i32 %.val.i31, 1
  store i32 %33, ptr %27, align 4, !tbaa !8
  br label %lean_inc.exit

34:                                               ; preds = %30
  %.not.i32 = icmp eq i32 %.val.i31, 0
  br i1 %.not.i32, label %lean_inc.exit, label %35

35:                                               ; preds = %34
  tail call void @lean_inc_ref_cold(ptr noundef nonnull %27) #3
  br label %lean_inc.exit

lean_inc.exit:                                    ; preds = %35, %34, %32, %25
  br i1 %.not.i30, label %36, label %lean_dec.exit20

36:                                               ; preds = %lean_inc.exit
  %37 = load i32, ptr %4, align 4, !tbaa !8
  %38 = icmp sgt i32 %37, 1
  br i1 %38, label %39, label %41, !prof !11

39:                                               ; preds = %36
  %40 = add nsw i32 %37, -1
  store i32 %40, ptr %4, align 4, !tbaa !8
  br label %lean_dec.exit20

41:                                               ; preds = %36
  %.not.i26 = icmp eq i32 %37, 0
  br i1 %.not.i26, label %lean_dec.exit20, label %42

42:                                               ; preds = %41
  tail call void @lean_dec_ref_cold(ptr noundef nonnull %4) #3
  br label %lean_dec.exit20

lean_dec.exit20:                                  ; preds = %42, %41, %39, %lean_inc.exit
  tail call void @lean_inc_heartbeat() #3
  %43 = tail call noalias ptr @mi_malloc_small(i64 noundef 16) #3
  %44 = icmp eq ptr %43, null
  br i1 %44, label %45, label %lean_alloc_ctor.exit

45:                                               ; preds = %lean_dec.exit20
  tail call void @lean_internal_panic_out_of_memory() #4
  unreachable

lean_alloc_ctor.exit:                             ; preds = %lean_dec.exit20
  %46 = getelementptr inbounds nuw i8, ptr %43, i64 4
  store i32 1, ptr %43, align 4, !tbaa !8
  store i32 65552, ptr %46, align 4
  %47 = getelementptr inbounds nuw i8, ptr %43, i64 8
  store ptr %27, ptr %47, align 8, !tbaa !4
  br label %lean_dec.exit22

48:                                               ; preds = %lean_obj_tag.exit
  %49 = getelementptr inbounds nuw i8, ptr %4, i64 8
  %50 = load ptr, ptr %49, align 8, !tbaa !4
  %51 = ptrtoint ptr %50 to i64
  %52 = and i64 %51, 1
  %.not = icmp eq i64 %52, 0
  br i1 %.not, label %53, label %lean_inc.exit23

53:                                               ; preds = %48
  %.val.i33 = load i32, ptr %50, align 4, !tbaa !8
  %54 = icmp sgt i32 %.val.i33, 0
  br i1 %54, label %55, label %57, !prof !11

55:                                               ; preds = %53
  %56 = add nuw i32 %.val.i33, 1
  store i32 %56, ptr %50, align 4, !tbaa !8
  br label %lean_inc.exit23

57:                                               ; preds = %53
  %.not.i34 = icmp eq i32 %.val.i33, 0
  br i1 %.not.i34, label %lean_inc.exit23, label %58

58:                                               ; preds = %57
  tail call void @lean_inc_ref_cold(ptr noundef nonnull %50) #3
  br label %lean_inc.exit23

lean_inc.exit23:                                  ; preds = %58, %57, %55, %48
  br i1 %.not.i30, label %59, label %lean_dec.exit21

59:                                               ; preds = %lean_inc.exit23
  %60 = load i32, ptr %4, align 4, !tbaa !8
  %61 = icmp sgt i32 %60, 1
  br i1 %61, label %62, label %64, !prof !11

62:                                               ; preds = %59
  %63 = add nsw i32 %60, -1
  store i32 %63, ptr %4, align 4, !tbaa !8
  br label %lean_dec.exit21

64:                                               ; preds = %59
  %.not.i24 = icmp eq i32 %60, 0
  br i1 %.not.i24, label %lean_dec.exit21, label %65

65:                                               ; preds = %64
  tail call void @lean_dec_ref_cold(ptr noundef nonnull %4) #3
  br label %lean_dec.exit21

lean_dec.exit21:                                  ; preds = %65, %64, %62, %lean_inc.exit23
  %66 = tail call ptr @l_Std_Time_TimeZone_convertTZif(ptr noundef %50, ptr noundef %1) #3
  br i1 %.not, label %67, label %lean_dec.exit22

67:                                               ; preds = %lean_dec.exit21
  %68 = load i32, ptr %50, align 4, !tbaa !8
  %69 = icmp sgt i32 %68, 1
  br i1 %69, label %70, label %72, !prof !11

70:                                               ; preds = %67
  %71 = add nsw i32 %68, -1
  store i32 %71, ptr %50, align 4, !tbaa !8
  br label %lean_dec.exit22

72:                                               ; preds = %67
  %.not.i = icmp eq i32 %68, 0
  br i1 %.not.i, label %lean_dec.exit22, label %73

73:                                               ; preds = %72
  tail call void @lean_dec_ref_cold(ptr noundef nonnull %50) #3
  br label %lean_dec.exit22

lean_dec.exit22:                                  ; preds = %lean_dec.exit21, %70, %72, %73, %lean_alloc_ctor.exit, %lean_dec.exit
  %.1 = phi ptr [ %43, %lean_alloc_ctor.exit ], [ %4, %lean_dec.exit ], [ %66, %73 ], [ %66, %72 ], [ %66, %70 ], [ %66, %lean_dec.exit21 ]
  ret ptr %.1
}